target datalayout = "e-m:e-p270:32:32-p271:32:32-p272:64:64-i64:64-i128:128-f80:128-n8:16:32:64-S128"
target triple = "x86_64-unknown-linux-gnu"

%"class.std::basic_string_view" = type { i64, ptr }
%struct.dl_phdr_info = type { i64, ptr, ptr, i16, i64, i64, i64, ptr }
%struct.postject_options = type { ptr, ptr, ptr, ptr, ptr }
%struct.Elf64_Phdr = type { i32, i32, i64, i64, i64, i64, i64, i64 }
%struct.Elf64_Nhdr = type { i32, i32, i32 }

@.str.9 = private unnamed_addr constant [14 x i8] c"NODE_SEA_BLOB\00", align 1

; Function Attrs: mustprogress nounwind uwtable
define linkonce_odr dso_local void @_ZNSt17basic_string_viewIcSt11char_traitsIcEEC2EPKcm(ptr noundef nonnull align 8 dereferenceable(16) %this, ptr noundef %__str, i64 noundef %__len) unnamed_addr #4 comdat align 2 {
entry:
  %this.addr = alloca ptr, align 8
  %__str.addr = alloca ptr, align 8
  %__len.addr = alloca i64, align 8
  store ptr %this, ptr %this.addr, align 8
  store ptr %__str, ptr %__str.addr, align 8
  store i64 %__len, ptr %__len.addr, align 8
  %this1 = load ptr, ptr %this.addr, align 8
  %_M_len = getelementptr inbounds %"class.std::basic_string_view", ptr %this1, i32 0, i32 0
  %0 = load i64, ptr %__len.addr, align 8
  store i64 %0, ptr %_M_len, align 8
  %_M_str = getelementptr inbounds %"class.std::basic_string_view", ptr %this1, i32 0, i32 1
  %1 = load ptr, ptr %__str.addr, align 8
  store ptr %1, ptr %_M_str, align 8
  ret void
}

; Function Attrs: mustprogress nounwind uwtable
define internal noundef ptr @_ZL22postject_find_resourcePKcPmPK16postject_options(ptr noundef %name, ptr noundef %size, ptr noundef %options) #4 {
entry:
  %retval = alloca ptr, align 8
  %name.addr = alloca ptr, align 8
  %size.addr = alloca ptr, align 8
  %options.addr = alloca ptr, align 8
  %main_program_info = alloca %struct.dl_phdr_info, align 8
  %p = alloca i64, align 8
  %n = alloca i64, align 8
  %base_addr = alloca i64, align 8
  %phdr = alloca ptr, align 8
  %pos = alloca i64, align 8
  %end = alloca i64, align 8
  %note = alloca ptr, align 8
  store ptr %name, ptr %name.addr, align 8
  store ptr %size, ptr %size.addr, align 8
  store ptr %options, ptr %options.addr, align 8
  %0 = load ptr, ptr %size.addr, align 8
  %cmp = icmp ne ptr %0, null
  br i1 %cmp, label %if.then, label %if.end

if.then:                                          ; preds = %entry
  %1 = load ptr, ptr %size.addr, align 8
  store i64 0, ptr %1, align 8
  br label %if.end

if.end:                                           ; preds = %if.then, %entry
  %2 = load ptr, ptr %options.addr, align 8
  %cmp1 = icmp ne ptr %2, null
  br i1 %cmp1, label %land.lhs.true, label %if.end5

land.lhs.true:                                    ; preds = %if.end
  %3 = load ptr, ptr %options.addr, align 8
  %elf_section_name = getelementptr inbounds %struct.postject_options, ptr %3, i32 0, i32 0
  %4 = load ptr, ptr %elf_section_name, align 8
  %cmp2 = icmp ne ptr %4, null
  br i1 %cmp2, label %if.then3, label %if.end5

if.then3:                                         ; preds = %land.lhs.true
  %5 = load ptr, ptr %options.addr, align 8
  %elf_section_name4 = getelementptr inbounds %struct.postject_options, ptr %5, i32 0, i32 0
  %6 = load ptr, ptr %elf_section_name4, align 8
  store ptr %6, ptr %name.addr, align 8
  br label %if.end5

if.end5:                                          ; preds = %if.then3, %land.lhs.true, %if.end
  %call = call i32 @dl_iterate_phdr(ptr noundef @_ZL34postject__dl_iterate_phdr_callbackP12dl_phdr_infomPv, ptr noundef %main_program_info)
  %dlpi_phdr = getelementptr inbounds %struct.dl_phdr_info, ptr %main_program_info, i32 0, i32 2
  %7 = load ptr, ptr %dlpi_phdr, align 8
  %8 = ptrtoint ptr %7 to i64
  store i64 %8, ptr %p, align 8
  %dlpi_phnum = getelementptr inbounds %struct.dl_phdr_info, ptr %main_program_info, i32 0, i32 3
  %9 = load i16, ptr %dlpi_phnum, align 8
  %conv = zext i16 %9 to i64
  store i64 %conv, ptr %n, align 8
  %dlpi_addr = getelementptr inbounds %struct.dl_phdr_info, ptr %main_program_info, i32 0, i32 0
  %10 = load i64, ptr %dlpi_addr, align 8
  store i64 %10, ptr %base_addr, align 8
  br label %for.cond

for.cond:                                         ; preds = %for.inc, %if.end5
  %11 = load i64, ptr %n, align 8
  %cmp6 = icmp ugt i64 %11, 0
  br i1 %cmp6, label %for.body, label %for.end

for.body:                                         ; preds = %for.cond
  %12 = load i64, ptr %p, align 8
  %13 = inttoptr i64 %12 to ptr
  store ptr %13, ptr %phdr, align 8
  %14 = load ptr, ptr %phdr, align 8
  %p_type = getelementptr inbounds %struct.Elf64_Phdr, ptr %14, i32 0, i32 0
  %15 = load i32, ptr %p_type, align 8
  %cmp7 = icmp ne i32 %15, 4
  br i1 %cmp7, label %if.then8, label %if.end9

if.then8:                                         ; preds = %for.body
  br label %for.inc

if.end9:                                          ; preds = %for.body
  %16 = load i64, ptr %base_addr, align 8
  %17 = load ptr, ptr %phdr, align 8
  %p_vaddr = getelementptr inbounds %struct.Elf64_Phdr, ptr %17, i32 0, i32 3
  %18 = load i64, ptr %p_vaddr, align 8
  %add = add i64 %16, %18
  store i64 %add, ptr %pos, align 8
  %19 = load i64, ptr %pos, align 8
  %20 = load ptr, ptr %phdr, align 8
  %p_memsz = getelementptr inbounds %struct.Elf64_Phdr, ptr %20, i32 0, i32 6
  %21 = load i64, ptr %p_memsz, align 8
  %add10 = add i64 %19, %21
  store i64 %add10, ptr %end, align 8
  br label %while.cond

while.cond:                                       ; preds = %if.end31, %if.end9
  %22 = load i64, ptr %pos, align 8
  %23 = load i64, ptr %end, align 8
  %cmp11 = icmp ult i64 %22, %23
  br i1 %cmp11, label %while.body, label %while.end

while.body:                                       ; preds = %while.cond
  %24 = load i64, ptr %pos, align 8
  %add12 = add i64 %24, 12
  %25 = load i64, ptr %end, align 8
  %cmp13 = icmp ugt i64 %add12, %25
  br i1 %cmp13, label %if.then14, label %if.end15

if.then14:                                        ; preds = %while.body
  br label %while.end

if.end15:                                         ; preds = %while.body
  %26 = load i64, ptr %pos, align 8
  %27 = inttoptr i64 %26 to ptr
  store ptr %27, ptr %note, align 8
  %28 = load ptr, ptr %note, align 8
  %n_namesz = getelementptr inbounds %struct.Elf64_Nhdr, ptr %28, i32 0, i32 0
  %29 = load i32, ptr %n_namesz, align 4
  %cmp16 = icmp ne i32 %29, 0
  br i1 %cmp16, label %land.lhs.true17, label %if.end31

land.lhs.true17:                                  ; preds = %if.end15
  %30 = load ptr, ptr %note, align 8
  %n_descsz = getelementptr inbounds %struct.Elf64_Nhdr, ptr %30, i32 0, i32 1
  %31 = load i32, ptr %n_descsz, align 4
  %cmp18 = icmp ne i32 %31, 0
  br i1 %cmp18, label %land.lhs.true19, label %if.end31

land.lhs.true19:                                  ; preds = %land.lhs.true17
  %32 = load i64, ptr %pos, align 8
  %add20 = add i64 %32, 12
  %33 = inttoptr i64 %add20 to ptr
  %34 = load ptr, ptr %name.addr, align 8
  %call21 = call i32 @strncmp(ptr noundef %33, ptr noundef %34, i64 noundef 8) #19
  %cmp22 = icmp eq i32 %call21, 0
  br i1 %cmp22, label %if.then23, label %if.end31

if.then23:                                        ; preds = %land.lhs.true19
  %35 = load ptr, ptr %note, align 8
  %n_descsz24 = getelementptr inbounds %struct.Elf64_Nhdr, ptr %35, i32 0, i32 1
  %36 = load i32, ptr %n_descsz24, align 4
  %conv25 = zext i32 %36 to i64
  %37 = load ptr, ptr %size.addr, align 8
  store i64 %conv25, ptr %37, align 8
  %38 = load ptr, ptr %note, align 8
  %39 = ptrtoint ptr %38 to i64
  %add26 = add i64 %39, 12
  %40 = load ptr, ptr %note, align 8
  %n_namesz27 = getelementptr inbounds %struct.Elf64_Nhdr, ptr %40, i32 0, i32 0
  %41 = load i32, ptr %n_namesz27, align 4
  %add28 = add i32 %41, 4
  %sub = sub i32 %add28, 1
  %and = and i32 %sub, -4
  %conv29 = zext i32 %and to i64
  %add30 = add i64 %add26, %conv29
  %42 = inttoptr i64 %add30 to ptr
  store ptr %42, ptr %retval, align 8
  br label %return

if.end31:                                         ; preds = %land.lhs.true19, %land.lhs.true17, %if.end15
  %43 = load ptr, ptr %note, align 8
  %n_namesz32 = getelementptr inbounds %struct.Elf64_Nhdr, ptr %43, i32 0, i32 0
  %44 = load i32, ptr %n_namesz32, align 4
  %add33 = add i32 %44, 4
  %sub34 = sub i32 %add33, 1
  %and35 = and i32 %sub34, -4
  %conv36 = zext i32 %and35 to i64
  %add37 = add i64 12, %conv36
  %45 = load ptr, ptr %note, align 8
  %n_descsz38 = getelementptr inbounds %struct.Elf64_Nhdr, ptr %45, i32 0, i32 1
  %46 = load i32, ptr %n_descsz38, align 4
  %add39 = add i32 %46, 4
  %sub40 = sub i32 %add39, 1
  %and41 = and i32 %sub40, -4
  %conv42 = zext i32 %and41 to i64
  %add43 = add i64 %add37, %conv42
  %47 = load i64, ptr %pos, align 8
  %add44 = add i64 %47, %add43
  store i64 %add44, ptr %pos, align 8
  br label %while.cond, !llvm.loop !6

while.end:                                        ; preds = %if.then14, %while.cond
  br label %for.inc

for.inc:                                          ; preds = %while.end, %if.then8
  %48 = load i64, ptr %n, align 8
  %dec = add i64 %48, -1
  store i64 %dec, ptr %n, align 8
  %49 = load i64, ptr %p, align 8
  %add45 = add i64 %49, 56
  store i64 %add45, ptr %p, align 8
  br label %for.cond, !llvm.loop !8

for.end:                                          ; preds = %for.cond
  store ptr null, ptr %retval, align 8
  br label %return

return:                                           ; preds = %for.end, %if.then23
  %50 = load ptr, ptr %retval, align 8
  ret ptr %50
}

; Function Attrs: mustprogress nounwind uwtable
define internal { i64, ptr } @"_ZZN4node3sea12_GLOBAL__N_124FindSingleExecutableBlobEvENK3$_0clEv"(ptr noundef nonnull align 1 dereferenceable(1) %this) #4 align 2 {
entry:
  %retval = alloca %"class.std::basic_string_view", align 8
  %this.addr = alloca ptr, align 8
  %size = alloca i64, align 8
  %blob = alloca ptr, align 8
  store ptr %this, ptr %this.addr, align 8
  %call = call noundef ptr @_ZL22postject_find_resourcePKcPmPK16postject_options(ptr noundef @.str.9, ptr noundef %size, ptr noundef null)
  store ptr %call, ptr %blob, align 8
  %0 = load ptr, ptr %blob, align 8
  %1 = load i64, ptr %size, align 8
  call void @_ZNSt17basic_string_viewIcSt11char_traitsIcEEC2EPKcm(ptr noundef nonnull align 8 dereferenceable(16) %retval, ptr noundef %0, i64 noundef %1) #3
  %2 = load { i64, ptr }, ptr %retval, align 8
  ret { i64, ptr } %2
}