; Function Attrs: mustprogress nounwind uwtable
define internal fastcc { i64, ptr } @"_ZZN4node3sea12_GLOBAL__N_124FindSingleExecutableBlobEvENK3$_0clEv"() unnamed_addr #4 align 2 {
entry:
  %main_program_info.i = alloca %struct.dl_phdr_info, align 8
  call void @llvm.lifetime.start.p0(i64 64, ptr nonnull %main_program_info.i)
  %call.i = call i32 @dl_iterate_phdr(ptr noundef nonnull @_ZL34postject__dl_iterate_phdr_callbackP12dl_phdr_infomPv, ptr noundef nonnull %main_program_info.i) #23
  %dlpi_phnum.i = getelementptr inbounds i8, ptr %main_program_info.i, i64 24
  %0 = load i16, ptr %dlpi_phnum.i, align 8
  %1 = load i64, ptr %main_program_info.i, align 8
  %cmp6.not4.i = icmp eq i16 %0, 0
  br i1 %cmp6.not4.i, label %_ZL22postject_find_resourcePKcPmPK16postject_options.exit, label %for.body.preheader.i

for.body.preheader.i:                             ; preds = %entry
  %conv.i = zext i16 %0 to i64
  %dlpi_phdr.i = getelementptr inbounds i8, ptr %main_program_info.i, i64 16
  %2 = load ptr, ptr %dlpi_phdr.i, align 8
  %3 = ptrtoint ptr %2 to i64
  br label %for.body.i

for.body.i:                                       ; preds = %for.inc.i, %for.body.preheader.i
  %p.06.i = phi i64 [ %add45.i, %for.inc.i ], [ %3, %for.body.preheader.i ]
  %n.05.i = phi i64 [ %dec.i, %for.inc.i ], [ %conv.i, %for.body.preheader.i ]
  %4 = inttoptr i64 %p.06.i to ptr
  %5 = load i32, ptr %4, align 8
  %cmp7.not.i = icmp eq i32 %5, 4
  br i1 %cmp7.not.i, label %if.end9.i, label %for.inc.i

if.end9.i:                                        ; preds = %for.body.i
  %p_vaddr.i = getelementptr inbounds i8, ptr %4, i64 16
  %6 = load i64, ptr %p_vaddr.i, align 8
  %add.i = add i64 %6, %1
  %p_memsz.i = getelementptr inbounds i8, ptr %4, i64 40
  %7 = load i64, ptr %p_memsz.i, align 8
  %add10.i = add i64 %add.i, %7
  %cmp112.i = icmp ult i64 %add.i, %add10.i
  br i1 %cmp112.i, label %while.body.i, label %for.inc.i

while.body.i:                                     ; preds = %if.end9.i, %if.end31.i
  %pos.03.i = phi i64 [ %add44.i, %if.end31.i ], [ %add.i, %if.end9.i ]
  %add12.i = add i64 %pos.03.i, 12
  %cmp13.i = icmp ugt i64 %add12.i, %add10.i
  br i1 %cmp13.i, label %for.inc.i, label %if.end15.i

if.end15.i:                                       ; preds = %while.body.i
  %8 = inttoptr i64 %pos.03.i to ptr
  %9 = load i32, ptr %8, align 4
  %cmp16.not.i = icmp eq i32 %9, 0
  %n_descsz38.phi.trans.insert.i = getelementptr inbounds i8, ptr %8, i64 4
  %.pre.i = load i32, ptr %n_descsz38.phi.trans.insert.i, align 4
  br i1 %cmp16.not.i, label %if.end31.i, label %land.lhs.true17.i

land.lhs.true17.i:                                ; preds = %if.end15.i
  %cmp18.not.i = icmp eq i32 %.pre.i, 0
  br i1 %cmp18.not.i, label %if.end31.i, label %land.lhs.true19.i

land.lhs.true19.i:                                ; preds = %land.lhs.true17.i
  %10 = inttoptr i64 %add12.i to ptr
  %call21.i = call i32 @strncmp(ptr noundef nonnull dereferenceable(1) %10, ptr noundef nonnull dereferenceable(14) @.str.9, i64 noundef 8) #28
  %cmp22.i = icmp eq i32 %call21.i, 0
  br i1 %cmp22.i, label %if.then23.i, label %if.end31.i

if.then23.i:                                      ; preds = %land.lhs.true19.i
  %conv25.i = zext i32 %.pre.i to i64
  %sub.i = add i32 %9, 3
  %and.i = and i32 %sub.i, -4
  %conv29.i = zext i32 %and.i to i64
  %add30.i = add i64 %add12.i, %conv29.i
  %11 = inttoptr i64 %add30.i to ptr
  br label %_ZL22postject_find_resourcePKcPmPK16postject_options.exit

if.end31.i:                                       ; preds = %land.lhs.true19.i, %land.lhs.true17.i, %if.end15.i
  %12 = phi i32 [ %.pre.i, %land.lhs.true19.i ], [ 0, %land.lhs.true17.i ], [ %.pre.i, %if.end15.i ]
  %sub34.i = add i32 %9, 3
  %and35.i = and i32 %sub34.i, -4
  %conv36.i = zext i32 %and35.i to i64
  %sub40.i = add i32 %12, 3
  %and41.i = and i32 %sub40.i, -4
  %conv42.i = zext i32 %and41.i to i64
  %add43.i = add i64 %add12.i, %conv36.i
  %add44.i = add i64 %add43.i, %conv42.i
  %cmp11.i = icmp ult i64 %add44.i, %add10.i
  br i1 %cmp11.i, label %while.body.i, label %for.inc.i, !llvm.loop !31

for.inc.i:                                        ; preds = %if.end31.i, %while.body.i, %if.end9.i, %for.body.i
  %dec.i = add nsw i64 %n.05.i, -1
  %add45.i = add i64 %p.06.i, 56
  %cmp6.not.i = icmp eq i64 %dec.i, 0
  br i1 %cmp6.not.i, label %_ZL22postject_find_resourcePKcPmPK16postject_options.exit, label %for.body.i, !llvm.loop !32

_ZL22postject_find_resourcePKcPmPK16postject_options.exit: ; preds = %for.inc.i, %entry, %if.then23.i
  %size.0 = phi i64 [ 0, %entry ], [ %conv25.i, %if.then23.i ], [ 0, %for.inc.i ]
  %retval.0.i = phi ptr [ null, %entry ], [ %11, %if.then23.i ], [ null, %for.inc.i ]
  call void @llvm.lifetime.end.p0(i64 64, ptr nonnull %main_program_info.i)
  %.fca.0.insert = insertvalue { i64, ptr } poison, i64 %size.0, 0
  %.fca.1.insert = insertvalue { i64, ptr } %.fca.0.insert, ptr %retval.0.i, 1
  ret { i64, ptr } %.fca.1.insert
}